; Function Attrs: mustprogress nounwind uwtable
define internal void @"_ZN4absl12lts_2023080222internal_any_invocable23RemoteManagerNontrivialIZN17grpc_event_engine12experimental16PosixEventEngine14CreateListenerENS0_12AnyInvocableIFvSt10unique_ptrINS4_11EventEngine8EndpointESt14default_deleteIS9_EENS4_15MemoryAllocatorEEEENS6_IFvNS0_6StatusEEEERKNS4_14EndpointConfigES7_INS4_22MemoryAllocatorFactoryESA_ISM_EEE3$_0EEvNS1_14FunctionToCallEPNS1_15TypeErasedStateESS_"(i1 noundef zeroext %operation, ptr nocapture noundef readonly %from, ptr nocapture noundef writeonly %to) #5 {
entry:
  %0 = load ptr, ptr %from, align 16
  br i1 %operation, label %sw.bb2, label %sw.bb

sw.bb:                                            ; preds = %entry
  store ptr %0, ptr %to, align 16
  br label %do.end

sw.bb2:                                           ; preds = %entry
  %isnull = icmp eq ptr %0, null
  br i1 %isnull, label %do.end, label %delete.notnull

delete.notnull:                                   ; preds = %sw.bb2
  %manager_.i.i.i.i = getelementptr inbounds i8, ptr %0, i64 16
  %1 = load ptr, ptr %manager_.i.i.i.i, align 16
  tail call void %1(i1 noundef zeroext true, ptr noundef nonnull %0, ptr noundef nonnull %0) #26
  tail call void @_ZdlPv(ptr noundef nonnull %0) #28
  br label %do.end

do.end:                                           ; preds = %sw.bb2, %delete.notnull, %sw.bb
  ret void
}